#include <math.h>
#include <stdio.h>
#include <stdlib.h>
#include <string.h>

main()
{
	int n,i,j,t,as,bs;
	char a[100][100],b[100][100];
	scanf("%d",&n);
	for (i=1;i<=n;i++)
	{
		scanf("%s",a[i]);
		scanf("%s",b[i]);
		getchar();
	}
	for (i=1;i<=n;i++)
	{
		as=strlen(a[i]);
		bs=strlen(b[i]);
		for (j=0;j<as;j++)
			a[i][j]-='0';
		for (j=0;j<bs;j++)
			b[i][j]-='0';
		for (j=1;j<=bs;j++)
		{
			a[i][as-j]-=b[i][bs-j];
			if (a[i][as-j]<0) 
			{
				a[i][as-j-1]--;
				do
				a[i][as-j]+=10;
				while (a[i][as-j]<0);
			}
		}
		t=0;
		while (a[i][t]==0)
			t++;
		for (j=t;j<as;j++)
			printf("%d",a[i][j]);
		printf("\n");
	}
	return 0;
}