target datalayout = "e-m:e-p270:32:32-p271:32:32-p272:64:64-i64:64-f80:128-n8:16:32:64-S128"
target triple = "x86_64-pc-linux-gnu"

@.str = private unnamed_addr constant [3 x i8] c"%d\00", align 1
@.str.1 = private unnamed_addr constant [3 x i8] c"%s\00", align 1
@.str.2 = private unnamed_addr constant [2 x i8] c"\0A\00", align 1

; Function Attrs: noinline nounwind uwtable
define dso_local i32 @main() #0 {
  %1 = alloca i32, align 4
  %2 = alloca i32, align 4
  %3 = alloca i32, align 4
  %4 = alloca i32, align 4
  %5 = alloca i32, align 4
  %6 = alloca i32, align 4
  %7 = alloca i32, align 4
  %8 = alloca [100 x [100 x i8]], align 16
  %9 = alloca [100 x [100 x i8]], align 16
  store i32 0, i32* %1, align 4
  %10 = call i32 (i8*, ...) @__isoc99_scanf(i8* getelementptr inbounds ([3 x i8], [3 x i8]* @.str, i64 0, i64 0), i32* %2)
  store i32 1, i32* %3, align 4
  br label %11

11:                                               ; preds = %27, %0
  %12 = load i32, i32* %3, align 4
  %13 = load i32, i32* %2, align 4
  %14 = icmp sle i32 %12, %13
  br i1 %14, label %15, label %30

15:                                               ; preds = %11
  %16 = load i32, i32* %3, align 4
  %17 = sext i32 %16 to i64
  %18 = getelementptr inbounds [100 x [100 x i8]], [100 x [100 x i8]]* %8, i64 0, i64 %17
  %19 = getelementptr inbounds [100 x i8], [100 x i8]* %18, i64 0, i64 0
  %20 = call i32 (i8*, ...) @__isoc99_scanf(i8* getelementptr inbounds ([3 x i8], [3 x i8]* @.str.1, i64 0, i64 0), i8* %19)
  %21 = load i32, i32* %3, align 4
  %22 = sext i32 %21 to i64
  %23 = getelementptr inbounds [100 x [100 x i8]], [100 x [100 x i8]]* %9, i64 0, i64 %22
  %24 = getelementptr inbounds [100 x i8], [100 x i8]* %23, i64 0, i64 0
  %25 = call i32 (i8*, ...) @__isoc99_scanf(i8* getelementptr inbounds ([3 x i8], [3 x i8]* @.str.1, i64 0, i64 0), i8* %24)
  %26 = call i32 @getchar()
  br label %27

27:                                               ; preds = %15
  %28 = load i32, i32* %3, align 4
  %29 = add nsw i32 %28, 1
  store i32 %29, i32* %3, align 4
  br label %11

30:                                               ; preds = %11
  store i32 1, i32* %3, align 4
  br label %31

31:                                               ; preds = %201, %30
  %32 = load i32, i32* %3, align 4
  %33 = load i32, i32* %2, align 4
  %34 = icmp sle i32 %32, %33
  br i1 %34, label %35, label %204

35:                                               ; preds = %31
  %36 = load i32, i32* %3, align 4
  %37 = sext i32 %36 to i64
  %38 = getelementptr inbounds [100 x [100 x i8]], [100 x [100 x i8]]* %8, i64 0, i64 %37
  %39 = getelementptr inbounds [100 x i8], [100 x i8]* %38, i64 0, i64 0
  %40 = call i64 @strlen(i8* %39) #3
  %41 = trunc i64 %40 to i32
  store i32 %41, i32* %6, align 4
  %42 = load i32, i32* %3, align 4
  %43 = sext i32 %42 to i64
  %44 = getelementptr inbounds [100 x [100 x i8]], [100 x [100 x i8]]* %9, i64 0, i64 %43
  %45 = getelementptr inbounds [100 x i8], [100 x i8]* %44, i64 0, i64 0
  %46 = call i64 @strlen(i8* %45) #3
  %47 = trunc i64 %46 to i32
  store i32 %47, i32* %7, align 4
  store i32 0, i32* %4, align 4
  br label %48

48:                                               ; preds = %63, %35
  %49 = load i32, i32* %4, align 4
  %50 = load i32, i32* %6, align 4
  %51 = icmp slt i32 %49, %50
  br i1 %51, label %52, label %66

52:                                               ; preds = %48
  %53 = load i32, i32* %3, align 4
  %54 = sext i32 %53 to i64
  %55 = getelementptr inbounds [100 x [100 x i8]], [100 x [100 x i8]]* %8, i64 0, i64 %54
  %56 = load i32, i32* %4, align 4
  %57 = sext i32 %56 to i64
  %58 = getelementptr inbounds [100 x i8], [100 x i8]* %55, i64 0, i64 %57
  %59 = load i8, i8* %58, align 1
  %60 = sext i8 %59 to i32
  %61 = sub nsw i32 %60, 48
  %62 = trunc i32 %61 to i8
  store i8 %62, i8* %58, align 1
  br label %63

63:                                               ; preds = %52
  %64 = load i32, i32* %4, align 4
  %65 = add nsw i32 %64, 1
  store i32 %65, i32* %4, align 4
  br label %48

66:                                               ; preds = %48
  store i32 0, i32* %4, align 4
  br label %67

67:                                               ; preds = %82, %66
  %68 = load i32, i32* %4, align 4
  %69 = load i32, i32* %7, align 4
  %70 = icmp slt i32 %68, %69
  br i1 %70, label %71, label %85

71:                                               ; preds = %67
  %72 = load i32, i32* %3, align 4
  %73 = sext i32 %72 to i64
  %74 = getelementptr inbounds [100 x [100 x i8]], [100 x [100 x i8]]* %9, i64 0, i64 %73
  %75 = load i32, i32* %4, align 4
  %76 = sext i32 %75 to i64
  %77 = getelementptr inbounds [100 x i8], [100 x i8]* %74, i64 0, i64 %76
  %78 = load i8, i8* %77, align 1
  %79 = sext i8 %78 to i32
  %80 = sub nsw i32 %79, 48
  %81 = trunc i32 %80 to i8
  store i8 %81, i8* %77, align 1
  br label %82

82:                                               ; preds = %71
  %83 = load i32, i32* %4, align 4
  %84 = add nsw i32 %83, 1
  store i32 %84, i32* %4, align 4
  br label %67

85:                                               ; preds = %67
  store i32 1, i32* %4, align 4
  br label %86

86:                                               ; preds = %163, %85
  %87 = load i32, i32* %4, align 4
  %88 = load i32, i32* %7, align 4
  %89 = icmp sle i32 %87, %88
  br i1 %89, label %90, label %166

90:                                               ; preds = %86
  %91 = load i32, i32* %3, align 4
  %92 = sext i32 %91 to i64
  %93 = getelementptr inbounds [100 x [100 x i8]], [100 x [100 x i8]]* %9, i64 0, i64 %92
  %94 = load i32, i32* %7, align 4
  %95 = load i32, i32* %4, align 4
  %96 = sub nsw i32 %94, %95
  %97 = sext i32 %96 to i64
  %98 = getelementptr inbounds [100 x i8], [100 x i8]* %93, i64 0, i64 %97
  %99 = load i8, i8* %98, align 1
  %100 = sext i8 %99 to i32
  %101 = load i32, i32* %3, align 4
  %102 = sext i32 %101 to i64
  %103 = getelementptr inbounds [100 x [100 x i8]], [100 x [100 x i8]]* %8, i64 0, i64 %102
  %104 = load i32, i32* %6, align 4
  %105 = load i32, i32* %4, align 4
  %106 = sub nsw i32 %104, %105
  %107 = sext i32 %106 to i64
  %108 = getelementptr inbounds [100 x i8], [100 x i8]* %103, i64 0, i64 %107
  %109 = load i8, i8* %108, align 1
  %110 = sext i8 %109 to i32
  %111 = sub nsw i32 %110, %100
  %112 = trunc i32 %111 to i8
  store i8 %112, i8* %108, align 1
  %113 = load i32, i32* %3, align 4
  %114 = sext i32 %113 to i64
  %115 = getelementptr inbounds [100 x [100 x i8]], [100 x [100 x i8]]* %8, i64 0, i64 %114
  %116 = load i32, i32* %6, align 4
  %117 = load i32, i32* %4, align 4
  %118 = sub nsw i32 %116, %117
  %119 = sext i32 %118 to i64
  %120 = getelementptr inbounds [100 x i8], [100 x i8]* %115, i64 0, i64 %119
  %121 = load i8, i8* %120, align 1
  %122 = sext i8 %121 to i32
  %123 = icmp slt i32 %122, 0
  br i1 %123, label %124, label %162

124:                                              ; preds = %90
  %125 = load i32, i32* %3, align 4
  %126 = sext i32 %125 to i64
  %127 = getelementptr inbounds [100 x [100 x i8]], [100 x [100 x i8]]* %8, i64 0, i64 %126
  %128 = load i32, i32* %6, align 4
  %129 = load i32, i32* %4, align 4
  %130 = sub nsw i32 %128, %129
  %131 = sub nsw i32 %130, 1
  %132 = sext i32 %131 to i64
  %133 = getelementptr inbounds [100 x i8], [100 x i8]* %127, i64 0, i64 %132
  %134 = load i8, i8* %133, align 1
  %135 = add i8 %134, -1
  store i8 %135, i8* %133, align 1
  br label %136

136:                                              ; preds = %149, %124
  %137 = load i32, i32* %3, align 4
  %138 = sext i32 %137 to i64
  %139 = getelementptr inbounds [100 x [100 x i8]], [100 x [100 x i8]]* %8, i64 0, i64 %138
  %140 = load i32, i32* %6, align 4
  %141 = load i32, i32* %4, align 4
  %142 = sub nsw i32 %140, %141
  %143 = sext i32 %142 to i64
  %144 = getelementptr inbounds [100 x i8], [100 x i8]* %139, i64 0, i64 %143
  %145 = load i8, i8* %144, align 1
  %146 = sext i8 %145 to i32
  %147 = add nsw i32 %146, 10
  %148 = trunc i32 %147 to i8
  store i8 %148, i8* %144, align 1
  br label %149

149:                                              ; preds = %136
  %150 = load i32, i32* %3, align 4
  %151 = sext i32 %150 to i64
  %152 = getelementptr inbounds [100 x [100 x i8]], [100 x [100 x i8]]* %8, i64 0, i64 %151
  %153 = load i32, i32* %6, align 4
  %154 = load i32, i32* %4, align 4
  %155 = sub nsw i32 %153, %154
  %156 = sext i32 %155 to i64
  %157 = getelementptr inbounds [100 x i8], [100 x i8]* %152, i64 0, i64 %156
  %158 = load i8, i8* %157, align 1
  %159 = sext i8 %158 to i32
  %160 = icmp slt i32 %159, 0
  br i1 %160, label %136, label %161

161:                                              ; preds = %149
  br label %162

162:                                              ; preds = %161, %90
  br label %163

163:                                              ; preds = %162
  %164 = load i32, i32* %4, align 4
  %165 = add nsw i32 %164, 1
  store i32 %165, i32* %4, align 4
  br label %86

166:                                              ; preds = %86
  store i32 0, i32* %5, align 4
  br label %167

167:                                              ; preds = %177, %166
  %168 = load i32, i32* %3, align 4
  %169 = sext i32 %168 to i64
  %170 = getelementptr inbounds [100 x [100 x i8]], [100 x [100 x i8]]* %8, i64 0, i64 %169
  %171 = load i32, i32* %5, align 4
  %172 = sext i32 %171 to i64
  %173 = getelementptr inbounds [100 x i8], [100 x i8]* %170, i64 0, i64 %172
  %174 = load i8, i8* %173, align 1
  %175 = sext i8 %174 to i32
  %176 = icmp eq i32 %175, 0
  br i1 %176, label %177, label %180

177:                                              ; preds = %167
  %178 = load i32, i32* %5, align 4
  %179 = add nsw i32 %178, 1
  store i32 %179, i32* %5, align 4
  br label %167

180:                                              ; preds = %167
  %181 = load i32, i32* %5, align 4
  store i32 %181, i32* %4, align 4
  br label %182

182:                                              ; preds = %196, %180
  %183 = load i32, i32* %4, align 4
  %184 = load i32, i32* %6, align 4
  %185 = icmp slt i32 %183, %184
  br i1 %185, label %186, label %199

186:                                              ; preds = %182
  %187 = load i32, i32* %3, align 4
  %188 = sext i32 %187 to i64
  %189 = getelementptr inbounds [100 x [100 x i8]], [100 x [100 x i8]]* %8, i64 0, i64 %188
  %190 = load i32, i32* %4, align 4
  %191 = sext i32 %190 to i64
  %192 = getelementptr inbounds [100 x i8], [100 x i8]* %189, i64 0, i64 %191
  %193 = load i8, i8* %192, align 1
  %194 = sext i8 %193 to i32
  %195 = call i32 (i8*, ...) @printf(i8* getelementptr inbounds ([3 x i8], [3 x i8]* @.str, i64 0, i64 0), i32 %194)
  br label %196

196:                                              ; preds = %186
  %197 = load i32, i32* %4, align 4
  %198 = add nsw i32 %197, 1
  store i32 %198, i32* %4, align 4
  br label %182

199:                                              ; preds = %182
  %200 = call i32 (i8*, ...) @printf(i8* getelementptr inbounds ([2 x i8], [2 x i8]* @.str.2, i64 0, i64 0))
  br label %201

201:                                              ; preds = %199
  %202 = load i32, i32* %3, align 4
  %203 = add nsw i32 %202, 1
  store i32 %203, i32* %3, align 4
  br label %31

204:                                              ; preds = %31
  ret i32 0
}